#include <math.h>
#include <stdio.h>
#include <stdlib.h>
#include <string.h>


void main()
{
	char str[260],sbstr[260],rplyc[260],*p1,*p2,*p3;
	int i,j,a,b,m;
	gets(str);
	gets(sbstr);
	gets(rplyc);
	a=strlen(str);
	b=strlen(sbstr);
	
	for(i=0;i<a-b+1;i++)
	{
		m=0;
		p1=str+i;
		p2=sbstr;
		for(j=0;j<b;j++)
		{
			if(*(p1+j)==*(p2+j))
				m++;
		}
	
		if(m==b)
		{
            p1=str+i;
	    	p3=rplyc;
	    	for(j=0;j<b;j++)
				*(p1+j)=*(p3+j);
			break;
		}
	}
	puts(str);
}

	
