; ModuleID = '7/882.c'
source_filename = "7/882.c"
target datalayout = "e-m:e-p270:32:32-p271:32:32-p272:64:64-i64:64-f80:128-n8:16:32:64-S128"
target triple = "x86_64-pc-linux-gnu"

; Function Attrs: noinline nounwind uwtable
define dso_local void @main() #0 {
  %1 = alloca [260 x i8], align 16
  %2 = alloca [260 x i8], align 16
  %3 = alloca [260 x i8], align 16
  %4 = alloca i8*, align 8
  %5 = alloca i8*, align 8
  %6 = alloca i8*, align 8
  %7 = alloca i32, align 4
  %8 = alloca i32, align 4
  %9 = alloca i32, align 4
  %10 = alloca i32, align 4
  %11 = alloca i32, align 4
  %12 = getelementptr inbounds [260 x i8], [260 x i8]* %1, i64 0, i64 0
  %13 = call i32 (i8*, ...) bitcast (i32 (...)* @gets to i32 (i8*, ...)*)(i8* %12)
  %14 = getelementptr inbounds [260 x i8], [260 x i8]* %2, i64 0, i64 0
  %15 = call i32 (i8*, ...) bitcast (i32 (...)* @gets to i32 (i8*, ...)*)(i8* %14)
  %16 = getelementptr inbounds [260 x i8], [260 x i8]* %3, i64 0, i64 0
  %17 = call i32 (i8*, ...) bitcast (i32 (...)* @gets to i32 (i8*, ...)*)(i8* %16)
  %18 = getelementptr inbounds [260 x i8], [260 x i8]* %1, i64 0, i64 0
  %19 = call i64 @strlen(i8* %18) #3
  %20 = trunc i64 %19 to i32
  store i32 %20, i32* %9, align 4
  %21 = getelementptr inbounds [260 x i8], [260 x i8]* %2, i64 0, i64 0
  %22 = call i64 @strlen(i8* %21) #3
  %23 = trunc i64 %22 to i32
  store i32 %23, i32* %10, align 4
  store i32 0, i32* %7, align 4
  br label %24

24:                                               ; preds = %91, %0
  %25 = load i32, i32* %7, align 4
  %26 = load i32, i32* %9, align 4
  %27 = load i32, i32* %10, align 4
  %28 = sub nsw i32 %26, %27
  %29 = add nsw i32 %28, 1
  %30 = icmp slt i32 %25, %29
  br i1 %30, label %31, label %94

31:                                               ; preds = %24
  store i32 0, i32* %11, align 4
  %32 = getelementptr inbounds [260 x i8], [260 x i8]* %1, i64 0, i64 0
  %33 = load i32, i32* %7, align 4
  %34 = sext i32 %33 to i64
  %35 = getelementptr inbounds i8, i8* %32, i64 %34
  store i8* %35, i8** %4, align 8
  %36 = getelementptr inbounds [260 x i8], [260 x i8]* %2, i64 0, i64 0
  store i8* %36, i8** %5, align 8
  store i32 0, i32* %8, align 4
  br label %37

37:                                               ; preds = %59, %31
  %38 = load i32, i32* %8, align 4
  %39 = load i32, i32* %10, align 4
  %40 = icmp slt i32 %38, %39
  br i1 %40, label %41, label %62

41:                                               ; preds = %37
  %42 = load i8*, i8** %4, align 8
  %43 = load i32, i32* %8, align 4
  %44 = sext i32 %43 to i64
  %45 = getelementptr inbounds i8, i8* %42, i64 %44
  %46 = load i8, i8* %45, align 1
  %47 = sext i8 %46 to i32
  %48 = load i8*, i8** %5, align 8
  %49 = load i32, i32* %8, align 4
  %50 = sext i32 %49 to i64
  %51 = getelementptr inbounds i8, i8* %48, i64 %50
  %52 = load i8, i8* %51, align 1
  %53 = sext i8 %52 to i32
  %54 = icmp eq i32 %47, %53
  br i1 %54, label %55, label %58

55:                                               ; preds = %41
  %56 = load i32, i32* %11, align 4
  %57 = add nsw i32 %56, 1
  store i32 %57, i32* %11, align 4
  br label %58

58:                                               ; preds = %55, %41
  br label %59

59:                                               ; preds = %58
  %60 = load i32, i32* %8, align 4
  %61 = add nsw i32 %60, 1
  store i32 %61, i32* %8, align 4
  br label %37

62:                                               ; preds = %37
  %63 = load i32, i32* %11, align 4
  %64 = load i32, i32* %10, align 4
  %65 = icmp eq i32 %63, %64
  br i1 %65, label %66, label %90

66:                                               ; preds = %62
  %67 = getelementptr inbounds [260 x i8], [260 x i8]* %1, i64 0, i64 0
  %68 = load i32, i32* %7, align 4
  %69 = sext i32 %68 to i64
  %70 = getelementptr inbounds i8, i8* %67, i64 %69
  store i8* %70, i8** %4, align 8
  %71 = getelementptr inbounds [260 x i8], [260 x i8]* %3, i64 0, i64 0
  store i8* %71, i8** %6, align 8
  store i32 0, i32* %8, align 4
  br label %72

72:                                               ; preds = %86, %66
  %73 = load i32, i32* %8, align 4
  %74 = load i32, i32* %10, align 4
  %75 = icmp slt i32 %73, %74
  br i1 %75, label %76, label %89

76:                                               ; preds = %72
  %77 = load i8*, i8** %6, align 8
  %78 = load i32, i32* %8, align 4
  %79 = sext i32 %78 to i64
  %80 = getelementptr inbounds i8, i8* %77, i64 %79
  %81 = load i8, i8* %80, align 1
  %82 = load i8*, i8** %4, align 8
  %83 = load i32, i32* %8, align 4
  %84 = sext i32 %83 to i64
  %85 = getelementptr inbounds i8, i8* %82, i64 %84
  store i8 %81, i8* %85, align 1
  br label %86

86:                                               ; preds = %76
  %87 = load i32, i32* %8, align 4
  %88 = add nsw i32 %87, 1
  store i32 %88, i32* %8, align 4
  br label %72

89:                                               ; preds = %72
  br label %94

90:                                               ; preds = %62
  br label %91

91:                                               ; preds = %90
  %92 = load i32, i32* %7, align 4
  %93 = add nsw i32 %92, 1
  store i32 %93, i32* %7, align 4
  br label %24

94:                                               ; preds = %89, %24
  %95 = getelementptr inbounds [260 x i8], [260 x i8]* %1, i64 0, i64 0
  %96 = call i32 @puts(i8* %95)
  ret void
}

declare dso_local i32 @gets(...) #1

; Function Attrs: nounwind readonly
declare dso_local i64 @strlen(i8*) #2

declare dso_local i32 @puts(i8*) #1


!llvm.module.flags = !{!0}
!llvm.ident = !{!1}

!0 = !{i32 1, !"wchar_size", i32 4}
!1 = !{!"clang version 10.0.0-4ubuntu1 "}
